target datalayout = "e-m:e-p270:32:32-p271:32:32-p272:64:64-i64:64-i128:128-f80:128-n8:16:32:64-S128"
target triple = "x86_64-pc-linux-gnu"

%class.ShenandoahPhaseTimings = type { i32, [316 x double], [316 x %class.HdrSeq], [316 x ptr], ptr }
%class.HdrSeq = type { %class.NumberSeq, ptr }
%class.NumberSeq = type { %class.AbsSeq, double, double }
%class.AbsSeq = type { ptr, i32, double, double, double, double, double }
%class.WorkerDataArray = type { ptr, i32, ptr, ptr, i8, [9 x ptr] }

; Function Attrs: mustprogress nounwind uwtable
define hidden noundef i32 @_ZN22ShenandoahPhaseTimings16worker_par_phaseENS_5PhaseENS_8ParPhaseE(ptr noundef nonnull align 8 dereferenceable(30352) %0, i32 noundef %1, i32 noundef %2) #1 align 2 {
  %4 = alloca ptr, align 8
  %5 = alloca i32, align 4
  %6 = alloca i32, align 4
  %7 = alloca i32, align 4
  store ptr %0, ptr %4, align 8
  store i32 %1, ptr %5, align 4
  store i32 %2, ptr %6, align 4
  %8 = load i32, ptr %5, align 4
  %9 = add nsw i32 %8, 1
  %10 = load i32, ptr %6, align 4
  %11 = add nsw i32 %9, %10
  store i32 %11, ptr %7, align 4
  %12 = load i32, ptr %7, align 4
  ret i32 %12
}

; Function Attrs: mustprogress nounwind uwtable
define hidden void @_ZN22ShenandoahPhaseTimings14set_cycle_dataENS_5PhaseEd(ptr noundef nonnull align 8 dereferenceable(30352) %0, i32 noundef %1, double noundef %2) #1 align 2 {
  %4 = alloca ptr, align 8
  %5 = alloca i32, align 4
  %6 = alloca double, align 8
  store ptr %0, ptr %4, align 8
  store i32 %1, ptr %5, align 4
  store double %2, ptr %6, align 8
  %7 = load ptr, ptr %4, align 8
  %8 = load double, ptr %6, align 8
  %9 = getelementptr inbounds %class.ShenandoahPhaseTimings, ptr %7, i32 0, i32 1
  %10 = load i32, ptr %5, align 4
  %11 = zext i32 %10 to i64
  %12 = getelementptr inbounds [316 x double], ptr %9, i64 0, i64 %11
  store double %8, ptr %12, align 8
  ret void
}

; Function Attrs: mustprogress nounwind uwtable
define linkonce_odr hidden noundef double @_ZNK15WorkerDataArrayIdE3getEj(ptr noundef nonnull align 8 dereferenceable(112) %0, i32 noundef %1) #1 comdat align 2 {
  %3 = alloca ptr, align 8
  %4 = alloca i32, align 4
  store ptr %0, ptr %3, align 8
  store i32 %1, ptr %4, align 4
  %5 = load ptr, ptr %3, align 8
  %6 = getelementptr inbounds %class.WorkerDataArray, ptr %5, i32 0, i32 0
  %7 = load ptr, ptr %6, align 8
  %8 = load i32, ptr %4, align 4
  %9 = zext i32 %8 to i64
  %10 = getelementptr inbounds double, ptr %7, i64 %9
  %11 = load double, ptr %10, align 8
  ret double %11
}

; Function Attrs: mustprogress nounwind uwtable
define hidden noundef ptr @_ZN22ShenandoahPhaseTimings11worker_dataENS_5PhaseENS_8ParPhaseE(ptr noundef nonnull align 8 dereferenceable(30352) %0, i32 noundef %1, i32 noundef %2) #1 align 2 {
  %4 = alloca ptr, align 8
  %5 = alloca i32, align 4
  %6 = alloca i32, align 4
  %7 = alloca i32, align 4
  %8 = alloca ptr, align 8
  store ptr %0, ptr %4, align 8
  store i32 %1, ptr %5, align 4
  store i32 %2, ptr %6, align 4
  %9 = load ptr, ptr %4, align 8
  %10 = load i32, ptr %5, align 4
  %11 = load i32, ptr %6, align 4
  %12 = call noundef i32 @_ZN22ShenandoahPhaseTimings16worker_par_phaseENS_5PhaseENS_8ParPhaseE(ptr noundef nonnull align 8 dereferenceable(30352) %9, i32 noundef %10, i32 noundef %11)
  store i32 %12, ptr %7, align 4
  %13 = getelementptr inbounds %class.ShenandoahPhaseTimings, ptr %9, i32 0, i32 3
  %14 = load i32, ptr %7, align 4
  %15 = zext i32 %14 to i64
  %16 = getelementptr inbounds [316 x ptr], ptr %13, i64 0, i64 %15
  %17 = load ptr, ptr %16, align 8
  store ptr %17, ptr %8, align 8
  %18 = load ptr, ptr %8, align 8
  ret ptr %18
}

; Function Attrs: mustprogress nounwind uwtable
define linkonce_odr hidden noundef double @_ZN22ShenandoahPhaseTimings13uninitializedEv() #1 comdat align 2 {
  ret double -1.000000e+00
}

; Function Attrs: mustprogress nounwind uwtable
define hidden void @_ZN22ShenandoahPhaseTimings26flush_par_workers_to_cycleEv(ptr noundef nonnull align 8 dereferenceable(30352) %0) #1 align 2 {
  %2 = alloca ptr, align 8
  %3 = alloca i32, align 4
  %4 = alloca i32, align 4
  %5 = alloca double, align 8
  %6 = alloca i32, align 4
  %7 = alloca ptr, align 8
  %8 = alloca double, align 8
  %9 = alloca i32, align 4
  %10 = alloca double, align 8
  store ptr %0, ptr %2, align 8
  %11 = load ptr, ptr %2, align 8
  store i32 0, ptr %3, align 4
  br label %12

12:                                               ; preds = %90, %1
  %13 = load i32, ptr %3, align 4
  %14 = icmp ult i32 %13, 316
  br i1 %14, label %15, label %93

15:                                               ; preds = %12
  %16 = load i32, ptr %3, align 4
  store i32 %16, ptr %4, align 4
  %17 = load i32, ptr %4, align 4
  %18 = call noundef zeroext i1 @_ZN22ShenandoahPhaseTimings15is_worker_phaseENS_5PhaseE(i32 noundef %17)
  br i1 %18, label %19, label %89

19:                                               ; preds = %15
  %20 = call noundef double @_ZN22ShenandoahPhaseTimings13uninitializedEv()
  store double %20, ptr %5, align 8
  store i32 1, ptr %6, align 4
  br label %21

21:                                               ; preds = %77, %19
  %22 = load i32, ptr %6, align 4
  %23 = icmp ult i32 %22, 10
  br i1 %23, label %24, label %80

24:                                               ; preds = %21
  %25 = load i32, ptr %4, align 4
  %26 = load i32, ptr %6, align 4
  %27 = call noundef ptr @_ZN22ShenandoahPhaseTimings11worker_dataENS_5PhaseENS_8ParPhaseE(ptr noundef nonnull align 8 dereferenceable(30352) %11, i32 noundef %25, i32 noundef %26)
  store ptr %27, ptr %7, align 8
  %28 = call noundef double @_ZN22ShenandoahPhaseTimings13uninitializedEv()
  store double %28, ptr %8, align 8
  store i32 0, ptr %9, align 4
  br label %29

29:                                               ; preds = %53, %24
  %30 = load i32, ptr %9, align 4
  %31 = getelementptr inbounds %class.ShenandoahPhaseTimings, ptr %11, i32 0, i32 0
  %32 = load i32, ptr %31, align 8
  %33 = icmp ult i32 %30, %32
  br i1 %33, label %34, label %56

34:                                               ; preds = %29
  %35 = load ptr, ptr %7, align 8
  %36 = load i32, ptr %9, align 4
  %37 = call noundef double @_ZNK15WorkerDataArrayIdE3getEj(ptr noundef nonnull align 8 dereferenceable(112) %35, i32 noundef %36)
  store double %37, ptr %10, align 8
  %38 = load double, ptr %10, align 8
  %39 = call noundef double @_ZN15WorkerDataArrayIdE13uninitializedEv()
  %40 = fcmp une double %38, %39
  br i1 %40, label %41, label %52

41:                                               ; preds = %34
  %42 = load double, ptr %8, align 8
  %43 = call noundef double @_ZN22ShenandoahPhaseTimings13uninitializedEv()
  %44 = fcmp oeq double %42, %43
  br i1 %44, label %45, label %47

45:                                               ; preds = %41
  %46 = load double, ptr %10, align 8
  store double %46, ptr %8, align 8
  br label %51

47:                                               ; preds = %41
  %48 = load double, ptr %10, align 8
  %49 = load double, ptr %8, align 8
  %50 = fadd double %49, %48
  store double %50, ptr %8, align 8
  br label %51

51:                                               ; preds = %47, %45
  br label %52

52:                                               ; preds = %51, %34
  br label %53

53:                                               ; preds = %52
  %54 = load i32, ptr %9, align 4
  %55 = add i32 %54, 1
  store i32 %55, ptr %9, align 4
  br label %29, !llvm.loop !12

56:                                               ; preds = %29
  %57 = load double, ptr %8, align 8
  %58 = call noundef double @_ZN22ShenandoahPhaseTimings13uninitializedEv()
  %59 = fcmp une double %57, %58
  br i1 %59, label %60, label %76

60:                                               ; preds = %56
  %61 = load i32, ptr %4, align 4
  %62 = load i32, ptr %6, align 4
  %63 = add i32 %61, %62
  %64 = add i32 %63, 1
  %65 = load double, ptr %8, align 8
  call void @_ZN22ShenandoahPhaseTimings14set_cycle_dataENS_5PhaseEd(ptr noundef nonnull align 8 dereferenceable(30352) %11, i32 noundef %64, double noundef %65)
  %66 = load double, ptr %5, align 8
  %67 = call noundef double @_ZN22ShenandoahPhaseTimings13uninitializedEv()
  %68 = fcmp oeq double %66, %67
  br i1 %68, label %69, label %71

69:                                               ; preds = %60
  %70 = load double, ptr %8, align 8
  store double %70, ptr %5, align 8
  br label %75

71:                                               ; preds = %60
  %72 = load double, ptr %8, align 8
  %73 = load double, ptr %5, align 8
  %74 = fadd double %73, %72
  store double %74, ptr %5, align 8
  br label %75

75:                                               ; preds = %71, %69
  br label %76

76:                                               ; preds = %75, %56
  br label %77

77:                                               ; preds = %76
  %78 = load i32, ptr %6, align 4
  %79 = add i32 %78, 1
  store i32 %79, ptr %6, align 4
  br label %21, !llvm.loop !13

80:                                               ; preds = %21
  %81 = load double, ptr %5, align 8
  %82 = call noundef double @_ZN22ShenandoahPhaseTimings13uninitializedEv()
  %83 = fcmp une double %81, %82
  br i1 %83, label %84, label %88

84:                                               ; preds = %80
  %85 = load i32, ptr %4, align 4
  %86 = add nsw i32 %85, 1
  %87 = load double, ptr %5, align 8
  call void @_ZN22ShenandoahPhaseTimings14set_cycle_dataENS_5PhaseEd(ptr noundef nonnull align 8 dereferenceable(30352) %11, i32 noundef %86, double noundef %87)
  br label %88

88:                                               ; preds = %84, %80
  br label %89

89:                                               ; preds = %88, %15
  br label %90

90:                                               ; preds = %89
  %91 = load i32, ptr %3, align 4
  %92 = add i32 %91, 1
  store i32 %92, ptr %3, align 4
  br label %12, !llvm.loop !14

93:                                               ; preds = %12
  ret void
}