; Function Attrs: mustprogress nounwind uwtable
define hidden void @_ZN22ShenandoahPhaseTimings26flush_par_workers_to_cycleEv(ptr nocapture noundef nonnull align 8 dereferenceable(30352) %0) local_unnamed_addr #1 align 2 {
  %2 = getelementptr inbounds i8, ptr %0, i64 27816
  %3 = getelementptr inbounds i8, ptr %0, i64 8
  br label %4

4:                                                ; preds = %1, %.split.us.thread
  %indvars.iv45 = phi i64 [ 0, %1 ], [ %7, %.split.us.thread ]
  %5 = trunc nuw nsw i64 %indvars.iv45 to i32
  %6 = tail call noundef zeroext i1 @_ZN22ShenandoahPhaseTimings15is_worker_phaseENS_5PhaseE(i32 noundef %5)
  %7 = add nuw nsw i64 %indvars.iv45, 1
  %8 = load i32, ptr %0, align 8
  %.not = icmp ne i32 %8, 0
  %or.cond.not = select i1 %6, i1 %.not, i1 false
  br i1 %or.cond.not, label %.preheader.split, label %.split.us.thread

.preheader.split:                                 ; preds = %4, %._crit_edge.thread
  %9 = phi i32 [ %32, %._crit_edge.thread ], [ 1, %4 ]
  %indvars.iv42 = phi i64 [ %indvars.iv.next43, %._crit_edge.thread ], [ 1, %4 ]
  %.03037 = phi double [ %.131, %._crit_edge.thread ], [ -1.000000e+00, %4 ]
  %10 = add nuw nsw i64 %7, %indvars.iv42
  %11 = getelementptr inbounds [316 x ptr], ptr %2, i64 0, i64 %10
  %12 = load ptr, ptr %11, align 8
  %.not39 = icmp eq i32 %9, 0
  br i1 %.not39, label %._crit_edge.thread, label %.lr.ph

.lr.ph:                                           ; preds = %.preheader.split, %22
  %indvars.iv = phi i64 [ %indvars.iv.next, %22 ], [ 0, %.preheader.split ]
  %.02934 = phi double [ %.1, %22 ], [ -1.000000e+00, %.preheader.split ]
  %13 = load ptr, ptr %12, align 8
  %14 = getelementptr inbounds double, ptr %13, i64 %indvars.iv
  %15 = load double, ptr %14, align 8
  %16 = tail call noundef double @_ZN15WorkerDataArrayIdE13uninitializedEv() #12
  %17 = fcmp une double %15, %16
  br i1 %17, label %18, label %22

18:                                               ; preds = %.lr.ph
  %19 = fcmp oeq double %.02934, -1.000000e+00
  br i1 %19, label %22, label %20

20:                                               ; preds = %18
  %21 = fadd double %.02934, %15
  br label %22

22:                                               ; preds = %18, %.lr.ph, %20
  %.1 = phi double [ %21, %20 ], [ %.02934, %.lr.ph ], [ %15, %18 ]
  %indvars.iv.next = add nuw nsw i64 %indvars.iv, 1
  %23 = load i32, ptr %0, align 8
  %24 = zext i32 %23 to i64
  %25 = icmp ult i64 %indvars.iv.next, %24
  br i1 %25, label %.lr.ph, label %._crit_edge, !llvm.loop !12

._crit_edge:                                      ; preds = %22
  %26 = fcmp une double %.1, -1.000000e+00
  br i1 %26, label %27, label %._crit_edge.thread

27:                                               ; preds = %._crit_edge
  %28 = getelementptr inbounds [316 x double], ptr %3, i64 0, i64 %10
  store double %.1, ptr %28, align 8
  %29 = fcmp oeq double %.03037, -1.000000e+00
  br i1 %29, label %._crit_edge.thread, label %30

30:                                               ; preds = %27
  %31 = fadd double %.03037, %.1
  br label %._crit_edge.thread

._crit_edge.thread:                               ; preds = %.preheader.split, %27, %._crit_edge, %30
  %32 = phi i32 [ %23, %30 ], [ %23, %._crit_edge ], [ %23, %27 ], [ 0, %.preheader.split ]
  %.131 = phi double [ %31, %30 ], [ %.03037, %._crit_edge ], [ %.1, %27 ], [ %.03037, %.preheader.split ]
  %indvars.iv.next43 = add nuw nsw i64 %indvars.iv42, 1
  %exitcond.not = icmp eq i64 %indvars.iv.next43, 10
  br i1 %exitcond.not, label %.split.us, label %.preheader.split, !llvm.loop !13

.split.us:                                        ; preds = %._crit_edge.thread
  %33 = fcmp une double %.131, -1.000000e+00
  br i1 %33, label %34, label %.split.us.thread

34:                                               ; preds = %.split.us
  %35 = getelementptr inbounds [316 x double], ptr %3, i64 0, i64 %7
  store double %.131, ptr %35, align 8
  br label %.split.us.thread

.split.us.thread:                                 ; preds = %4, %34, %.split.us
  %exitcond48.not = icmp eq i64 %7, 316
  br i1 %exitcond48.not, label %36, label %4, !llvm.loop !15

36:                                               ; preds = %.split.us.thread
  ret void
}